; Function Attrs: nounwind uwtable
define ptr @l_Lean_Elab_ComputedFields_mkComputedFieldOverrides___lambda__3(ptr noundef %0, ptr noundef %1, ptr noundef %2, ptr noundef %3, ptr noundef %4, ptr readnone captures(none) %5, ptr noundef %6, ptr noundef %7, ptr noundef %8, ptr noundef %9, ptr noundef %10) local_unnamed_addr #0 {
  %12 = getelementptr inbounds nuw i8, ptr %0, i64 8
  %13 = load ptr, ptr %12, align 8, !tbaa !4
  %14 = ptrtoint ptr %13 to i64
  %15 = and i64 %14, 1
  %.not = icmp eq i64 %15, 0
  br i1 %.not, label %16, label %lean_inc.exit26

16:                                               ; preds = %11
  %.val.i = load i32, ptr %13, align 4, !tbaa !8
  %17 = icmp sgt i32 %.val.i, 0
  br i1 %17, label %18, label %20, !prof !13

18:                                               ; preds = %16
  %19 = add nuw i32 %.val.i, 1
  store i32 %19, ptr %13, align 4, !tbaa !8
  br label %lean_inc.exit26

20:                                               ; preds = %16
  %.not.i27 = icmp eq i32 %.val.i, 0
  br i1 %.not.i27, label %lean_inc.exit26, label %21

21:                                               ; preds = %20
  tail call void @lean_inc_ref_cold(ptr noundef nonnull %13) #4
  br label %lean_inc.exit26

lean_inc.exit26:                                  ; preds = %21, %20, %18, %11
  %22 = ptrtoint ptr %0 to i64
  %23 = and i64 %22, 1
  %.not31 = icmp eq i64 %23, 0
  br i1 %.not31, label %24, label %lean_dec.exit

24:                                               ; preds = %lean_inc.exit26
  %25 = load i32, ptr %0, align 4, !tbaa !8
  %26 = icmp sgt i32 %25, 1
  br i1 %26, label %27, label %29, !prof !13

27:                                               ; preds = %24
  %28 = add nsw i32 %25, -1
  store i32 %28, ptr %0, align 4, !tbaa !8
  br label %lean_dec.exit

29:                                               ; preds = %24
  %.not.i = icmp eq i32 %25, 0
  br i1 %.not.i, label %lean_dec.exit, label %30

30:                                               ; preds = %29
  tail call void @lean_dec_ref_cold(ptr noundef nonnull %0) #4
  br label %lean_dec.exit

lean_dec.exit:                                    ; preds = %30, %29, %27, %lean_inc.exit26
  %31 = ptrtoint ptr %1 to i64
  %32 = and i64 %31, 1
  %.not32 = icmp eq i64 %32, 0
  br i1 %.not32, label %33, label %lean_inc.exit

33:                                               ; preds = %lean_dec.exit
  %.val.i28 = load i32, ptr %1, align 4, !tbaa !8
  %34 = icmp sgt i32 %.val.i28, 0
  br i1 %34, label %35, label %37, !prof !13

35:                                               ; preds = %33
  %36 = add nuw i32 %.val.i28, 1
  store i32 %36, ptr %1, align 4, !tbaa !8
  br label %lean_inc.exit

37:                                               ; preds = %33
  %.not.i29 = icmp eq i32 %.val.i28, 0
  br i1 %.not.i29, label %lean_inc.exit, label %38

38:                                               ; preds = %37
  tail call void @lean_inc_ref_cold(ptr noundef nonnull %1) #4
  br label %lean_inc.exit

lean_inc.exit:                                    ; preds = %38, %37, %35, %lean_dec.exit
  %39 = tail call ptr @l_Lean_Expr_const___override(ptr noundef %13, ptr noundef %1) #4
  %40 = tail call ptr @l_Lean_mkAppN(ptr noundef %39, ptr noundef %4) #4
  tail call void @lean_inc_heartbeat() #4
  %41 = tail call noalias ptr @mi_malloc_small(i64 noundef 56) #4
  %42 = icmp eq ptr %41, null
  br i1 %42, label %43, label %lean_alloc_closure.exit

43:                                               ; preds = %lean_inc.exit
  tail call void @lean_internal_panic_out_of_memory() #5
  unreachable

lean_alloc_closure.exit:                          ; preds = %lean_inc.exit
  %44 = getelementptr inbounds nuw i8, ptr %41, i64 4
  store i32 1, ptr %41, align 4, !tbaa !8
  store i32 -184549320, ptr %44, align 4
  %45 = getelementptr inbounds nuw i8, ptr %41, i64 8
  store ptr @l_Lean_Elab_ComputedFields_mkComputedFieldOverrides___lambda__2, ptr %45, align 8, !tbaa !4
  %46 = getelementptr inbounds nuw i8, ptr %41, i64 16
  store i16 10, ptr %46, align 8, !tbaa !16
  %47 = getelementptr inbounds nuw i8, ptr %41, i64 18
  store i16 4, ptr %47, align 2, !tbaa !16
  %48 = getelementptr inbounds nuw i8, ptr %41, i64 24
  store ptr %2, ptr %48, align 8, !tbaa !4
  %49 = getelementptr inbounds nuw i8, ptr %41, i64 32
  store ptr %4, ptr %49, align 8, !tbaa !4
  %50 = getelementptr inbounds nuw i8, ptr %41, i64 40
  store ptr %3, ptr %50, align 8, !tbaa !4
  %51 = getelementptr inbounds nuw i8, ptr %41, i64 48
  store ptr %1, ptr %51, align 8, !tbaa !4
  %52 = load ptr, ptr @l_Lean_Elab_ComputedFields_overrideComputedFields___closed__2, align 8, !tbaa !4
  %53 = tail call ptr @l_Lean_Meta_withLocalDecl___at_Lean_Meta_Simp_Arith_withAbstractAtoms_go___spec__1___rarg(ptr noundef %52, i8 noundef zeroext 0, ptr noundef %40, ptr noundef nonnull %41, i8 noundef zeroext 0, ptr noundef %6, ptr noundef %7, ptr noundef %8, ptr noundef %9, ptr noundef %10) #4
  ret ptr %53
}